; Function Attrs: nounwind uwtable
define dso_local noundef ptr @makeRangeVar(ptr noundef %0, ptr noundef %1, i32 noundef %2) local_unnamed_addr #0 {
  %4 = tail call noundef ptr @palloc0(i64 noundef 56) #7
  store i32 3, ptr %4, align 4
  %5 = getelementptr inbounds nuw i8, ptr %4, i64 8
  store ptr null, ptr %5, align 8
  %6 = getelementptr inbounds nuw i8, ptr %4, i64 16
  store ptr %0, ptr %6, align 8
  %7 = getelementptr inbounds nuw i8, ptr %4, i64 24
  store ptr %1, ptr %7, align 8
  %8 = getelementptr inbounds nuw i8, ptr %4, i64 32
  store i8 1, ptr %8, align 8
  %9 = getelementptr inbounds nuw i8, ptr %4, i64 33
  store i8 112, ptr %9, align 1
  %10 = getelementptr inbounds nuw i8, ptr %4, i64 40
  store ptr null, ptr %10, align 8
  %11 = getelementptr inbounds nuw i8, ptr %4, i64 48
  store i32 %2, ptr %11, align 8
  ret ptr %4
}